; Function Attrs: alwaysinline norecurse nounwind uwtable
define internal void @_ZNK8LightGBM16RegressionMetricINS_14FairLossMetricEE4EvalEPKdPKNS_17ObjectiveFunctionE.omp_outlined.41(ptr noalias noundef readonly captures(none) %0, ptr noalias readnone captures(none) %1, ptr noundef readonly captures(none) %2, ptr noundef nonnull align 8 captures(none) dereferenceable(8) %3, ptr noundef nonnull readonly align 8 captures(none) dereferenceable(8) %4) #15 personality ptr @__gxx_personality_v0 {
  %6 = alloca i32, align 4
  %7 = alloca i32, align 4
  %8 = alloca i32, align 4
  %9 = alloca i32, align 4
  %10 = alloca double, align 8
  %11 = alloca [1 x ptr], align 8
  %12 = getelementptr inbounds nuw i8, ptr %2, i64 8
  %13 = load i32, ptr %12, align 8, !tbaa !155
  %14 = icmp sgt i32 %13, 0
  br i1 %14, label %15, label %59

15:                                               ; preds = %5
  %16 = add nsw i32 %13, -1
  call void @llvm.lifetime.start.p0(i64 4, ptr nonnull %6) #16
  store i32 0, ptr %6, align 4, !tbaa !127
  call void @llvm.lifetime.start.p0(i64 4, ptr nonnull %7) #16
  store i32 %16, ptr %7, align 4, !tbaa !127
  call void @llvm.lifetime.start.p0(i64 4, ptr nonnull %8) #16
  store i32 1, ptr %8, align 4, !tbaa !127
  call void @llvm.lifetime.start.p0(i64 4, ptr nonnull %9) #16
  store i32 0, ptr %9, align 4, !tbaa !127
  call void @llvm.lifetime.start.p0(i64 8, ptr nonnull %10) #16
  store double 0.000000e+00, ptr %10, align 8, !tbaa !84
  %17 = load i32, ptr %0, align 4, !tbaa !127
  call void @__kmpc_for_static_init_4(ptr nonnull @1, i32 %17, i32 34, ptr nonnull %9, ptr nonnull %6, ptr nonnull %7, ptr nonnull %8, i32 1, i32 1)
  %18 = load i32, ptr %7, align 4, !tbaa !127
  %19 = call i32 @llvm.smin.i32(i32 %18, i32 %16)
  store i32 %19, ptr %7, align 4, !tbaa !127
  %20 = load i32, ptr %6, align 4, !tbaa !127
  %.not16 = icmp sgt i32 %20, %19
  br i1 %.not16, label %._crit_edge, label %.lr.ph

.lr.ph:                                           ; preds = %15
  %21 = getelementptr inbounds nuw i8, ptr %2, i64 16
  %22 = load ptr, ptr %21, align 8, !tbaa !157
  %23 = load ptr, ptr %4, align 8, !tbaa !81
  %24 = getelementptr inbounds nuw i8, ptr %2, i64 1352
  %25 = load double, ptr %24, align 8, !tbaa !161
  %26 = fmul double %25, %25
  %27 = getelementptr inbounds nuw i8, ptr %2, i64 24
  %28 = load ptr, ptr %27, align 8, !tbaa !158
  %29 = sext i32 %20 to i64
  br label %30

30:                                               ; preds = %.lr.ph, %30
  %indvars.iv = phi i64 [ %29, %.lr.ph ], [ %indvars.iv.next, %30 ]
  %31 = phi double [ 0.000000e+00, %.lr.ph ], [ %47, %30 ]
  %32 = getelementptr inbounds float, ptr %22, i64 %indvars.iv
  %33 = load float, ptr %32, align 4, !tbaa !78
  %34 = getelementptr inbounds double, ptr %23, i64 %indvars.iv
  %35 = load double, ptr %34, align 8, !tbaa !84
  %36 = fpext float %33 to double
  %37 = fsub double %35, %36
  %38 = call double @llvm.fabs.f64(double %37)
  %39 = fdiv double %38, %25
  %40 = call double @log1p(double noundef %39) #16, !tbaa !127
  %41 = fneg double %40
  %42 = fmul double %26, %41
  %43 = call noundef double @llvm.fmuladd.f64(double %25, double %38, double %42)
  %44 = getelementptr inbounds float, ptr %28, i64 %indvars.iv
  %45 = load float, ptr %44, align 4, !tbaa !78
  %46 = fpext float %45 to double
  %47 = call double @llvm.fmuladd.f64(double %43, double %46, double %31)
  store double %47, ptr %10, align 8, !tbaa !84
  %indvars.iv.next = add nsw i64 %indvars.iv, 1
  %48 = load i32, ptr %7, align 4, !tbaa !127
  %49 = sext i32 %48 to i64
  %.not.not = icmp slt i64 %indvars.iv, %49
  br i1 %.not.not, label %30, label %._crit_edge

._crit_edge:                                      ; preds = %30, %15
  call void @__kmpc_for_static_fini(ptr nonnull @1, i32 %17)
  store ptr %10, ptr %11, align 8
  %50 = call i32 @__kmpc_reduce_nowait(ptr nonnull @2, i32 %17, i32 1, i64 8, ptr nonnull %11, ptr nonnull @_ZNK8LightGBM16RegressionMetricINS_14FairLossMetricEE4EvalEPKdPKNS_17ObjectiveFunctionE.omp_outlined.41.omp.reduction.reduction_func, ptr nonnull @.gomp_critical_user_.reduction.var)
  switch i32 %50, label %58 [
    i32 1, label %51
    i32 2, label %55
  ]

51:                                               ; preds = %._crit_edge
  %52 = load double, ptr %3, align 8, !tbaa !84
  %53 = load double, ptr %10, align 8, !tbaa !84
  %54 = fadd double %52, %53
  store double %54, ptr %3, align 8, !tbaa !84
  call void @__kmpc_end_reduce_nowait(ptr nonnull @2, i32 %17, ptr nonnull @.gomp_critical_user_.reduction.var)
  br label %58

55:                                               ; preds = %._crit_edge
  %56 = load double, ptr %10, align 8, !tbaa !84
  %57 = atomicrmw fadd ptr %3, double %56 monotonic, align 8
  br label %58

58:                                               ; preds = %55, %51, %._crit_edge
  call void @llvm.lifetime.end.p0(i64 8, ptr nonnull %10) #16
  call void @llvm.lifetime.end.p0(i64 4, ptr nonnull %9) #16
  call void @llvm.lifetime.end.p0(i64 4, ptr nonnull %8) #16
  call void @llvm.lifetime.end.p0(i64 4, ptr nonnull %7) #16
  call void @llvm.lifetime.end.p0(i64 4, ptr nonnull %6) #16
  br label %59

59:                                               ; preds = %58, %5
  ret void
}